target datalayout = "e-m:e-p270:32:32-p271:32:32-p272:64:64-i64:64-i128:128-f80:128-n8:16:32:64-S128"
target triple = "x86_64-pc-linux-gnu"

%"class.net::TcpCubicSenderBase" = type <{ %"class.net::SendAlgorithmInterface", %"class.net::HybridSlowStart", %"class.net::PrrSender", ptr, ptr, i8, [3 x i8], i32, i64, i64, i64, i8, i8, i8, i8, i8, [3 x i8] }>
%"class.net::SendAlgorithmInterface" = type { ptr }
%"class.net::HybridSlowStart" = type { i8, i32, i64, i64, i32, %"class.net::QuicTime::Delta" }
%"class.net::QuicTime::Delta" = type { %"class.base::TimeDelta", i64 }
%"class.base::TimeDelta" = type { i64 }
%"class.net::PrrSender" = type { i64, i64, i64, i64 }
%"class.net::QuicTime" = type { i64 }

; Function Attrs: mustprogress nounwind uwtable
define linkonce_odr void @_ZN4base9TimeDeltaC2Ev(ptr noundef nonnull align 8 dereferenceable(8) %0) unnamed_addr #3 comdat align 2 {
  %2 = alloca ptr, align 8
  store ptr %0, ptr %2, align 8, !tbaa !112
  %3 = load ptr, ptr %2, align 8
  %4 = getelementptr inbounds nuw %"class.base::TimeDelta", ptr %3, i32 0, i32 0
  store i64 0, ptr %4, align 8, !tbaa !114
  ret void
}

; Function Attrs: inlinehint mustprogress uwtable
define linkonce_odr void @_ZN3net8QuicTime5DeltaC2El(ptr noundef nonnull align 8 dereferenceable(16) %0, i64 noundef %1) unnamed_addr #6 comdat align 2 {
  %3 = alloca ptr, align 8
  %4 = alloca i64, align 8
  store ptr %0, ptr %3, align 8, !tbaa !98
  store i64 %1, ptr %4, align 8, !tbaa !56
  %5 = load ptr, ptr %3, align 8
  %6 = getelementptr inbounds nuw %"class.net::QuicTime::Delta", ptr %5, i32 0, i32 0
  call void @_ZN4base9TimeDeltaC2Ev(ptr noundef nonnull align 8 dereferenceable(8) %6)
  %7 = getelementptr inbounds nuw %"class.net::QuicTime::Delta", ptr %5, i32 0, i32 1
  %8 = load i64, ptr %4, align 8, !tbaa !56
  store i64 %8, ptr %7, align 8, !tbaa !100
  ret void
}

; Function Attrs: inlinehint mustprogress uwtable
define linkonce_odr { i64, i64 } @_ZN3net8QuicTime5Delta8InfiniteEv() #6 comdat align 2 {
  %1 = alloca %"class.net::QuicTime::Delta", align 8
  call void @_ZN3net8QuicTime5DeltaC2El(ptr noundef nonnull align 8 dereferenceable(16) %1, i64 noundef 9223372036854775807)
  %2 = load { i64, i64 }, ptr %1, align 8
  ret { i64, i64 } %2
}

; Function Attrs: inlinehint mustprogress uwtable
define linkonce_odr { i64, i64 } @_ZN3net8QuicTime5Delta4ZeroEv() #6 comdat align 2 {
  %1 = alloca %"class.net::QuicTime::Delta", align 8
  call void @_ZN3net8QuicTime5DeltaC2El(ptr noundef nonnull align 8 dereferenceable(16) %1, i64 noundef 0)
  %2 = load { i64, i64 }, ptr %1, align 8
  ret { i64, i64 } %2
}

; Function Attrs: mustprogress uwtable
define { i64, i64 } @_ZNK3net18TcpCubicSenderBase13TimeUntilSendENS_8QuicTimeEm(ptr noundef nonnull align 8 dereferenceable(141) %0, i64 %1, i64 noundef %2) unnamed_addr #0 align 2 {
  %4 = alloca %"class.net::QuicTime::Delta", align 8
  %5 = alloca %"class.net::QuicTime", align 8
  %6 = alloca ptr, align 8
  %7 = alloca i64, align 8
  %8 = getelementptr inbounds nuw %"class.net::QuicTime", ptr %5, i32 0, i32 0
  store i64 %1, ptr %8, align 8
  store ptr %0, ptr %6, align 8, !tbaa !3
  store i64 %2, ptr %7, align 8, !tbaa !56
  %9 = load ptr, ptr %6, align 8
  %10 = getelementptr inbounds nuw %"class.net::TcpCubicSenderBase", ptr %9, i32 0, i32 15
  %11 = load i8, ptr %10, align 4, !tbaa !40, !range !29, !noundef !30
  %12 = trunc i8 %11 to i1
  br i1 %12, label %34, label %13

13:                                               ; preds = %3
  %14 = load ptr, ptr %9, align 8, !tbaa !16
  %15 = getelementptr inbounds ptr, ptr %14, i64 14
  %16 = load ptr, ptr %15, align 8
  %17 = call noundef zeroext i1 %16(ptr noundef nonnull align 8 dereferenceable(141) %9)
  br i1 %17, label %18, label %34

18:                                               ; preds = %13
  %19 = getelementptr inbounds nuw %"class.net::TcpCubicSenderBase", ptr %9, i32 0, i32 2
  %20 = load ptr, ptr %9, align 8, !tbaa !16
  %21 = getelementptr inbounds ptr, ptr %20, i64 12
  %22 = load ptr, ptr %21, align 8
  %23 = call noundef i64 %22(ptr noundef nonnull align 8 dereferenceable(8) %9)
  %24 = load i64, ptr %7, align 8, !tbaa !56
  %25 = load ptr, ptr %9, align 8, !tbaa !16
  %26 = getelementptr inbounds ptr, ptr %25, i64 15
  %27 = load ptr, ptr %26, align 8
  %28 = call noundef i64 %27(ptr noundef nonnull align 8 dereferenceable(8) %9)
  %29 = call { i64, i64 } @_ZNK3net9PrrSender13TimeUntilSendEmmm(ptr noundef nonnull align 8 dereferenceable(32) %19, i64 noundef %23, i64 noundef %24, i64 noundef %28)
  %30 = getelementptr inbounds nuw { i64, i64 }, ptr %4, i32 0, i32 0
  %31 = extractvalue { i64, i64 } %29, 0
  store i64 %31, ptr %30, align 8
  %32 = getelementptr inbounds nuw { i64, i64 }, ptr %4, i32 0, i32 1
  %33 = extractvalue { i64, i64 } %29, 1
  store i64 %33, ptr %32, align 8
  br label %86

34:                                               ; preds = %13, %3
  %35 = load ptr, ptr %9, align 8, !tbaa !16
  %36 = getelementptr inbounds ptr, ptr %35, i64 12
  %37 = load ptr, ptr %36, align 8
  %38 = call noundef i64 %37(ptr noundef nonnull align 8 dereferenceable(8) %9)
  %39 = load i64, ptr %7, align 8, !tbaa !56
  %40 = icmp ugt i64 %38, %39
  br i1 %40, label %41, label %47

41:                                               ; preds = %34
  %42 = call { i64, i64 } @_ZN3net8QuicTime5Delta4ZeroEv()
  %43 = getelementptr inbounds nuw { i64, i64 }, ptr %4, i32 0, i32 0
  %44 = extractvalue { i64, i64 } %42, 0
  store i64 %44, ptr %43, align 8
  %45 = getelementptr inbounds nuw { i64, i64 }, ptr %4, i32 0, i32 1
  %46 = extractvalue { i64, i64 } %42, 1
  store i64 %46, ptr %45, align 8
  br label %86

47:                                               ; preds = %34
  %48 = getelementptr inbounds nuw %"class.net::TcpCubicSenderBase", ptr %9, i32 0, i32 11
  %49 = load i8, ptr %48, align 8, !tbaa !36, !range !29, !noundef !30
  %50 = trunc i8 %49 to i1
  br i1 %50, label %51, label %60

51:                                               ; preds = %47
  %52 = load i64, ptr %7, align 8, !tbaa !56
  %53 = icmp ult i64 %52, 5840
  br i1 %53, label %54, label %60

54:                                               ; preds = %51
  %55 = call { i64, i64 } @_ZN3net8QuicTime5Delta4ZeroEv()
  %56 = getelementptr inbounds nuw { i64, i64 }, ptr %4, i32 0, i32 0
  %57 = extractvalue { i64, i64 } %55, 0
  store i64 %57, ptr %56, align 8
  %58 = getelementptr inbounds nuw { i64, i64 }, ptr %4, i32 0, i32 1
  %59 = extractvalue { i64, i64 } %55, 1
  store i64 %59, ptr %58, align 8
  br label %86

60:                                               ; preds = %51, %47
  %61 = getelementptr inbounds nuw %"class.net::TcpCubicSenderBase", ptr %9, i32 0, i32 14
  %62 = load i8, ptr %61, align 1, !tbaa !39, !range !29, !noundef !30
  %63 = trunc i8 %62 to i1
  br i1 %63, label %64, label %80

64:                                               ; preds = %60
  %65 = load ptr, ptr %9, align 8, !tbaa !16
  %66 = getelementptr inbounds ptr, ptr %65, i64 12
  %67 = load ptr, ptr %66, align 8
  %68 = call noundef i64 %67(ptr noundef nonnull align 8 dereferenceable(8) %9)
  %69 = uitofp i64 %68 to float
  %70 = fmul float %69, 1.500000e+00
  %71 = load i64, ptr %7, align 8, !tbaa !56
  %72 = uitofp i64 %71 to float
  %73 = fcmp ogt float %70, %72
  br i1 %73, label %74, label %80

74:                                               ; preds = %64
  %75 = call { i64, i64 } @_ZN3net8QuicTime5Delta4ZeroEv()
  %76 = getelementptr inbounds nuw { i64, i64 }, ptr %4, i32 0, i32 0
  %77 = extractvalue { i64, i64 } %75, 0
  store i64 %77, ptr %76, align 8
  %78 = getelementptr inbounds nuw { i64, i64 }, ptr %4, i32 0, i32 1
  %79 = extractvalue { i64, i64 } %75, 1
  store i64 %79, ptr %78, align 8
  br label %86

80:                                               ; preds = %64, %60
  %81 = call { i64, i64 } @_ZN3net8QuicTime5Delta8InfiniteEv()
  %82 = getelementptr inbounds nuw { i64, i64 }, ptr %4, i32 0, i32 0
  %83 = extractvalue { i64, i64 } %81, 0
  store i64 %83, ptr %82, align 8
  %84 = getelementptr inbounds nuw { i64, i64 }, ptr %4, i32 0, i32 1
  %85 = extractvalue { i64, i64 } %81, 1
  store i64 %85, ptr %84, align 8
  br label %86

86:                                               ; preds = %80, %74, %54, %41, %18
  %87 = load { i64, i64 }, ptr %4, align 8
  ret { i64, i64 } %87
}