; Function Attrs: mustprogress uwtable
define { i64, i64 } @_ZNK3net18TcpCubicSenderBase13TimeUntilSendENS_8QuicTimeEm(ptr noundef nonnull align 8 dereferenceable(141) %0, i64 %1, i64 noundef %2) unnamed_addr #0 align 2 {
  %4 = getelementptr inbounds nuw i8, ptr %0, i64 140
  %5 = load i8, ptr %4, align 4, !tbaa !29, !range !47, !noundef !48
  %6 = trunc nuw i8 %5 to i1
  br i1 %6, label %23, label %7

7:                                                ; preds = %3
  %8 = load ptr, ptr %0, align 8, !tbaa !3
  %9 = getelementptr inbounds nuw i8, ptr %8, i64 112
  %10 = load ptr, ptr %9, align 8
  %11 = tail call noundef zeroext i1 %10(ptr noundef nonnull align 8 dereferenceable(141) %0)
  br i1 %11, label %12, label %23

12:                                               ; preds = %7
  %13 = getelementptr inbounds nuw i8, ptr %0, i64 56
  %14 = load ptr, ptr %0, align 8, !tbaa !3
  %15 = getelementptr inbounds nuw i8, ptr %14, i64 96
  %16 = load ptr, ptr %15, align 8
  %17 = tail call noundef i64 %16(ptr noundef nonnull align 8 dereferenceable(8) %0)
  %18 = load ptr, ptr %0, align 8, !tbaa !3
  %19 = getelementptr inbounds nuw i8, ptr %18, i64 120
  %20 = load ptr, ptr %19, align 8
  %21 = tail call noundef i64 %20(ptr noundef nonnull align 8 dereferenceable(8) %0)
  %22 = tail call { i64, i64 } @_ZNK3net9PrrSender13TimeUntilSendEmmm(ptr noundef nonnull align 8 dereferenceable(32) %13, i64 noundef %17, i64 noundef %2, i64 noundef %21)
  br label %48

23:                                               ; preds = %7, %3
  %24 = load ptr, ptr %0, align 8, !tbaa !3
  %25 = getelementptr inbounds nuw i8, ptr %24, i64 96
  %26 = load ptr, ptr %25, align 8
  %27 = tail call noundef i64 %26(ptr noundef nonnull align 8 dereferenceable(8) %0)
  %28 = icmp ugt i64 %27, %2
  br i1 %28, label %48, label %29

29:                                               ; preds = %23
  %30 = getelementptr inbounds nuw i8, ptr %0, i64 136
  %31 = load i8, ptr %30, align 8, !tbaa !27, !range !47, !noundef !48
  %32 = trunc nuw i8 %31 to i1
  %33 = icmp ult i64 %2, 5840
  %or.cond = and i1 %33, %32
  br i1 %or.cond, label %48, label %34

34:                                               ; preds = %29
  %35 = getelementptr inbounds nuw i8, ptr %0, i64 139
  %36 = load i8, ptr %35, align 1, !tbaa !30, !range !47, !noundef !48
  %37 = trunc nuw i8 %36 to i1
  br i1 %37, label %38, label %47

38:                                               ; preds = %34
  %39 = load ptr, ptr %0, align 8, !tbaa !3
  %40 = getelementptr inbounds nuw i8, ptr %39, i64 96
  %41 = load ptr, ptr %40, align 8
  %42 = tail call noundef i64 %41(ptr noundef nonnull align 8 dereferenceable(8) %0)
  %43 = uitofp i64 %42 to float
  %44 = fmul float %43, 1.500000e+00
  %45 = uitofp i64 %2 to float
  %46 = fcmp ogt float %44, %45
  br i1 %46, label %48, label %47

47:                                               ; preds = %38, %34
  br label %48

48:                                               ; preds = %38, %29, %23, %47, %12
  %.pn = phi { i64, i64 } [ { i64 0, i64 9223372036854775807 }, %47 ], [ %22, %12 ], [ zeroinitializer, %23 ], [ zeroinitializer, %29 ], [ zeroinitializer, %38 ]
  ret { i64, i64 } %.pn
}